target datalayout = "e-m:e-p270:32:32-p271:32:32-p272:64:64-i64:64-i128:128-f80:128-n8:16:32:64-S128"
target triple = "x86_64-pc-linux-gnu"

%"class.llvm::StringRef" = type { ptr, i64 }
%"class.llvm::SmallVectorBase.22" = type { ptr, i32, i32 }
%"class.llvm::BumpPtrAllocatorImpl" = type { ptr, ptr, %"class.llvm::SmallVector.235", %"class.llvm::SmallVector.240", i64, i64 }
%"class.llvm::SmallVector.235" = type { %"class.llvm::SmallVectorImpl.236", %"struct.llvm::SmallVectorStorage.239" }
%"class.llvm::SmallVectorImpl.236" = type { %"class.llvm::SmallVectorTemplateBase.237" }
%"class.llvm::SmallVectorTemplateBase.237" = type { %"class.llvm::SmallVectorTemplateCommon.238" }
%"class.llvm::SmallVectorTemplateCommon.238" = type { %"class.llvm::SmallVectorBase.22" }
%"struct.llvm::SmallVectorStorage.239" = type { [32 x i8] }
%"class.llvm::SmallVector.240" = type { %"class.llvm::SmallVectorImpl.241" }
%"class.llvm::SmallVectorImpl.241" = type { %"class.llvm::SmallVectorTemplateBase.242" }
%"class.llvm::SmallVectorTemplateBase.242" = type { %"class.llvm::SmallVectorTemplateCommon.243" }
%"class.llvm::SmallVectorTemplateCommon.243" = type { %"class.llvm::SmallVectorBase.22" }
%"class.clang::QualType" = type { %"class.llvm::PointerIntPair" }
%"class.llvm::PointerIntPair" = type { %"struct.llvm::detail::PunnedPointer" }
%"struct.llvm::detail::PunnedPointer" = type { [8 x i8] }
%"class.clang::SourceLocation" = type { i32 }
%"class.llvm::raw_ostream" = type { ptr, i32, ptr, ptr, ptr, i8, i32 }
%"class.(anonymous namespace)::MicrosoftCXXNameMangler" = type <{ ptr, ptr, ptr, i32, [4 x i8], %"class.llvm::SmallVector.588", %"class.llvm::DenseMap.593", %"class.llvm::DenseMap.593", %"class.llvm::DenseMap.596", %"class.llvm::BumpPtrAllocatorImpl", %"class.llvm::StringSaver", %"class.std::set", i8, [7 x i8] }>
%"class.llvm::SmallVector.588" = type { %"class.llvm::SmallVectorImpl.589", %"struct.llvm::SmallVectorStorage.592" }
%"class.llvm::SmallVectorImpl.589" = type { %"class.llvm::SmallVectorTemplateBase.590" }
%"class.llvm::SmallVectorTemplateBase.590" = type { %"class.llvm::SmallVectorTemplateCommon.591" }
%"class.llvm::SmallVectorTemplateCommon.591" = type { %"class.llvm::SmallVectorBase.22" }
%"struct.llvm::SmallVectorStorage.592" = type { [320 x i8] }
%"class.llvm::DenseMap.593" = type <{ ptr, i32, i32, i32, [4 x i8] }>
%"class.llvm::DenseMap.596" = type <{ ptr, i32, i32, i32, [4 x i8] }>
%"class.llvm::StringSaver" = type { ptr }
%"class.std::set" = type { %"class.std::_Rb_tree.599" }
%"class.std::_Rb_tree.599" = type { %"struct.std::_Rb_tree<std::pair<int, bool>, std::pair<int, bool>, std::_Identity<std::pair<int, bool>>, std::less<std::pair<int, bool>>>::_Rb_tree_impl" }
%"struct.std::_Rb_tree<std::pair<int, bool>, std::pair<int, bool>, std::_Identity<std::pair<int, bool>>, std::less<std::pair<int, bool>>>::_Rb_tree_impl" = type { [8 x i8], %"struct.std::_Rb_tree_header" }
%"struct.std::_Rb_tree_header" = type { %"struct.std::_Rb_tree_node_base", i64 }
%"struct.std::_Rb_tree_node_base" = type { i32, ptr, ptr, ptr }
%"class.clang::SourceRange" = type { %"class.clang::SourceLocation", %"class.clang::SourceLocation" }
%"class.clang::Qualifiers" = type { i64 }
%"class.clang::ExtQualsTypeCommonBase" = type { ptr, %"class.clang::QualType" }
%union.anon.646 = type { %"class.clang::Type::FunctionTypeBitfields" }
%"class.clang::Type::FunctionTypeBitfields" = type { i64 }
%"class.clang::Type" = type { %"class.clang::ExtQualsTypeCommonBase", %union.anon.646, [8 x i8] }

@.str.139 = private unnamed_addr constant [5 x i8] c"$$A6\00", align 1
@.str.140 = private unnamed_addr constant [7 x i8] c"$$A8@@\00", align 1

; Function Attrs: mustprogress nounwind uwtable
define linkonce_odr hidden noundef ptr @_ZNK4llvm9StringRef4dataEv(ptr noundef nonnull align 8 dereferenceable(16) %0) #0 comdat align 2 {
  %2 = alloca ptr, align 8
  store ptr %0, ptr %2, align 8
  %3 = load ptr, ptr %2, align 8
  %4 = getelementptr inbounds nuw %"class.llvm::StringRef", ptr %3, i32 0, i32 0
  %5 = load ptr, ptr %4, align 8
  ret ptr %5
}

; Function Attrs: mustprogress nounwind uwtable
define linkonce_odr hidden noundef i64 @_ZNK4llvm9StringRef4sizeEv(ptr noundef nonnull align 8 dereferenceable(16) %0) #0 comdat align 2 {
  %2 = alloca ptr, align 8
  store ptr %0, ptr %2, align 8
  %3 = load ptr, ptr %2, align 8
  %4 = getelementptr inbounds nuw %"class.llvm::StringRef", ptr %3, i32 0, i32 1
  %5 = load i64, ptr %4, align 8
  ret i64 %5
}

; Function Attrs: mustprogress nounwind uwtable
define linkonce_odr hidden noundef i64 @_ZNSt11char_traitsIcE6lengthEPKc(ptr noundef %0) #0 comdat align 2 {
  %2 = alloca ptr, align 8
  store ptr %0, ptr %2, align 8
  %3 = load ptr, ptr %2, align 8
  %4 = call i64 @strlen(ptr noundef %3) #14
  ret i64 %4
}

; Function Attrs: mustprogress nounwind uwtable
define linkonce_odr hidden noundef nonnull align 8 dereferenceable(48) ptr @_ZN4llvm11raw_ostreamlsENS_9StringRefE(ptr noundef nonnull align 8 dereferenceable(48) %0, ptr %1, i64 %2) #0 comdat align 2 {
  %4 = alloca ptr, align 8
  %5 = alloca %"class.llvm::StringRef", align 8
  %6 = alloca ptr, align 8
  %7 = alloca i64, align 8
  %8 = getelementptr inbounds nuw { ptr, i64 }, ptr %5, i32 0, i32 0
  store ptr %1, ptr %8, align 8
  %9 = getelementptr inbounds nuw { ptr, i64 }, ptr %5, i32 0, i32 1
  store i64 %2, ptr %9, align 8
  store ptr %0, ptr %6, align 8
  %10 = load ptr, ptr %6, align 8
  %11 = call noundef i64 @_ZNK4llvm9StringRef4sizeEv(ptr noundef nonnull align 8 dereferenceable(16) %5)
  store i64 %11, ptr %7, align 8
  %12 = load i64, ptr %7, align 8
  %13 = getelementptr inbounds nuw %"class.llvm::raw_ostream", ptr %10, i32 0, i32 3
  %14 = load ptr, ptr %13, align 8
  %15 = getelementptr inbounds nuw %"class.llvm::raw_ostream", ptr %10, i32 0, i32 4
  %16 = load ptr, ptr %15, align 8
  %17 = ptrtoint ptr %14 to i64
  %18 = ptrtoint ptr %16 to i64
  %19 = sub i64 %17, %18
  %20 = icmp ugt i64 %12, %19
  br i1 %20, label %21, label %25

21:                                               ; preds = %3
  %22 = call noundef ptr @_ZNK4llvm9StringRef4dataEv(ptr noundef nonnull align 8 dereferenceable(16) %5)
  %23 = load i64, ptr %7, align 8
  %24 = call noundef nonnull align 8 dereferenceable(48) ptr @_ZN4llvm11raw_ostream5writeEPKcm(ptr noundef nonnull align 8 dereferenceable(48) %10, ptr noundef %22, i64 noundef %23)
  store ptr %24, ptr %4, align 8
  br label %38

25:                                               ; preds = %3
  %26 = load i64, ptr %7, align 8
  %27 = icmp ne i64 %26, 0
  br i1 %27, label %28, label %37

28:                                               ; preds = %25
  %29 = getelementptr inbounds nuw %"class.llvm::raw_ostream", ptr %10, i32 0, i32 4
  %30 = load ptr, ptr %29, align 8
  %31 = call noundef ptr @_ZNK4llvm9StringRef4dataEv(ptr noundef nonnull align 8 dereferenceable(16) %5)
  %32 = load i64, ptr %7, align 8
  call void @llvm.memcpy.p0.p0.i64(ptr align 1 %30, ptr align 1 %31, i64 %32, i1 false)
  %33 = load i64, ptr %7, align 8
  %34 = getelementptr inbounds nuw %"class.llvm::raw_ostream", ptr %10, i32 0, i32 4
  %35 = load ptr, ptr %34, align 8
  %36 = getelementptr inbounds i8, ptr %35, i64 %33
  store ptr %36, ptr %34, align 8
  br label %37

37:                                               ; preds = %28, %25
  store ptr %10, ptr %4, align 8
  br label %38

38:                                               ; preds = %37, %21
  %39 = load ptr, ptr %4, align 8
  ret ptr %39
}

; Function Attrs: mustprogress nounwind uwtable
define linkonce_odr hidden void @_ZN4llvm9StringRefC2EPKc(ptr noundef nonnull align 8 dereferenceable(16) %0, ptr noundef %1) unnamed_addr #0 comdat align 2 {
  %3 = alloca ptr, align 8
  %4 = alloca ptr, align 8
  store ptr %0, ptr %3, align 8
  store ptr %1, ptr %4, align 8
  %5 = load ptr, ptr %3, align 8
  %6 = getelementptr inbounds nuw %"class.llvm::StringRef", ptr %5, i32 0, i32 0
  %7 = load ptr, ptr %4, align 8
  store ptr %7, ptr %6, align 8
  %8 = getelementptr inbounds nuw %"class.llvm::StringRef", ptr %5, i32 0, i32 1
  %9 = load ptr, ptr %4, align 8
  %10 = icmp ne ptr %9, null
  br i1 %10, label %11, label %14

11:                                               ; preds = %2
  %12 = load ptr, ptr %4, align 8
  %13 = call noundef i64 @_ZNSt11char_traitsIcE6lengthEPKc(ptr noundef %12)
  br label %15

14:                                               ; preds = %2
  br label %15

15:                                               ; preds = %14, %11
  %16 = phi i64 [ %13, %11 ], [ 0, %14 ]
  store i64 %16, ptr %8, align 8
  ret void
}

; Function Attrs: mustprogress nounwind uwtable
define linkonce_odr hidden noundef zeroext i1 @_ZNK5clang10Qualifiers13hasQualifiersEv(ptr noundef nonnull align 8 dereferenceable(8) %0) #0 comdat align 2 {
  %2 = alloca ptr, align 8
  store ptr %0, ptr %2, align 8
  %3 = load ptr, ptr %2, align 8
  %4 = getelementptr inbounds nuw %"class.clang::Qualifiers", ptr %3, i32 0, i32 0
  %5 = load i64, ptr %4, align 8
  %6 = icmp ne i64 %5, 0
  ret i1 %6
}

; Function Attrs: mustprogress nounwind uwtable
define linkonce_odr hidden noundef nonnull align 8 dereferenceable(48) ptr @_ZN4llvm11raw_ostreamlsEPKc(ptr noundef nonnull align 8 dereferenceable(48) %0, ptr noundef %1) #0 comdat align 2 {
  %3 = alloca ptr, align 8
  %4 = alloca ptr, align 8
  %5 = alloca %"class.llvm::StringRef", align 8
  store ptr %0, ptr %3, align 8
  store ptr %1, ptr %4, align 8
  %6 = load ptr, ptr %3, align 8
  %7 = load ptr, ptr %4, align 8
  call void @_ZN4llvm9StringRefC2EPKc(ptr noundef nonnull align 8 dereferenceable(16) %5, ptr noundef %7)
  %8 = getelementptr inbounds nuw { ptr, i64 }, ptr %5, i32 0, i32 0
  %9 = load ptr, ptr %8, align 8
  %10 = getelementptr inbounds nuw { ptr, i64 }, ptr %5, i32 0, i32 1
  %11 = load i64, ptr %10, align 8
  %12 = call noundef nonnull align 8 dereferenceable(48) ptr @_ZN4llvm11raw_ostreamlsENS_9StringRefE(ptr noundef nonnull align 8 dereferenceable(48) %6, ptr %9, i64 %11)
  ret ptr %12
}

; Function Attrs: mustprogress nounwind uwtable
define linkonce_odr hidden noundef i32 @_ZNK5clang17FunctionProtoType15getRefQualifierEv(ptr noundef nonnull align 16 dereferenceable(48) %0) #0 comdat align 2 {
  %2 = alloca ptr, align 8
  store ptr %0, ptr %2, align 8
  %3 = load ptr, ptr %2, align 8
  %4 = getelementptr inbounds nuw %"class.clang::Type", ptr %3, i32 0, i32 1
  %5 = load i64, ptr %4, align 16
  %6 = lshr i64 %5, 32
  %7 = and i64 %6, 3
  %8 = trunc i64 %7 to i32
  ret i32 %8
}

; Function Attrs: mustprogress nounwind uwtable
define linkonce_odr hidden noundef zeroext i1 @_ZNK5clang10QualifierscvbEv(ptr noundef nonnull align 8 dereferenceable(8) %0) #0 comdat align 2 {
  %2 = alloca ptr, align 8
  store ptr %0, ptr %2, align 8
  %3 = load ptr, ptr %2, align 8
  %4 = call noundef zeroext i1 @_ZNK5clang10Qualifiers13hasQualifiersEv(ptr noundef nonnull align 8 dereferenceable(8) %3)
  ret i1 %4
}

; Function Attrs: mustprogress nounwind uwtable
define internal void @_ZN12_GLOBAL__N_123MicrosoftCXXNameMangler10mangleTypeEPKN5clang17FunctionProtoTypeENS1_10QualifiersENS1_11SourceRangeE(ptr noundef nonnull align 8 dereferenceable(593) %0, ptr noundef %1, i64 %2, i64 %3) #0 align 2 {
  %5 = alloca %"class.clang::Qualifiers", align 8
  %6 = alloca %"class.clang::SourceRange", align 4
  %7 = alloca ptr, align 8
  %8 = alloca ptr, align 8
  %9 = alloca %"class.clang::Qualifiers", align 8
  %10 = getelementptr inbounds nuw %"class.clang::Qualifiers", ptr %5, i32 0, i32 0
  store i64 %2, ptr %10, align 8
  store i64 %3, ptr %6, align 4
  store ptr %0, ptr %7, align 8
  store ptr %1, ptr %8, align 8
  %11 = load ptr, ptr %7, align 8
  %12 = load ptr, ptr %8, align 8
  %13 = call i64 @_ZNK5clang17FunctionProtoType14getMethodQualsEv(ptr noundef nonnull align 16 dereferenceable(48) %12)
  %14 = getelementptr inbounds nuw %"class.clang::Qualifiers", ptr %9, i32 0, i32 0
  store i64 %13, ptr %14, align 8
  %15 = call noundef zeroext i1 @_ZNK5clang10QualifierscvbEv(ptr noundef nonnull align 8 dereferenceable(8) %9)
  br i1 %15, label %20, label %16

16:                                               ; preds = %4
  %17 = load ptr, ptr %8, align 8
  %18 = call noundef i32 @_ZNK5clang17FunctionProtoType15getRefQualifierEv(ptr noundef nonnull align 16 dereferenceable(48) %17)
  %19 = icmp ne i32 %18, 0
  br label %20

20:                                               ; preds = %16, %4
  %21 = phi i1 [ true, %4 ], [ %19, %16 ]
  br i1 %21, label %22, label %27

22:                                               ; preds = %20
  %23 = getelementptr inbounds nuw %"class.(anonymous namespace)::MicrosoftCXXNameMangler", ptr %11, i32 0, i32 1
  %24 = load ptr, ptr %23, align 8
  %25 = call noundef nonnull align 8 dereferenceable(48) ptr @_ZN4llvm11raw_ostreamlsEPKc(ptr noundef nonnull align 8 dereferenceable(48) %24, ptr noundef @.str.140)
  %26 = load ptr, ptr %8, align 8
  call void @_ZN12_GLOBAL__N_123MicrosoftCXXNameMangler18mangleFunctionTypeEPKN5clang12FunctionTypeEPKNS1_12FunctionDeclEbb(ptr noundef nonnull align 8 dereferenceable(593) %11, ptr noundef %26, ptr noundef null, i1 noundef zeroext true, i1 noundef zeroext true)
  br label %32

27:                                               ; preds = %20
  %28 = getelementptr inbounds nuw %"class.(anonymous namespace)::MicrosoftCXXNameMangler", ptr %11, i32 0, i32 1
  %29 = load ptr, ptr %28, align 8
  %30 = call noundef nonnull align 8 dereferenceable(48) ptr @_ZN4llvm11raw_ostreamlsEPKc(ptr noundef nonnull align 8 dereferenceable(48) %29, ptr noundef @.str.139)
  %31 = load ptr, ptr %8, align 8
  call void @_ZN12_GLOBAL__N_123MicrosoftCXXNameMangler18mangleFunctionTypeEPKN5clang12FunctionTypeEPKNS1_12FunctionDeclEbb(ptr noundef nonnull align 8 dereferenceable(593) %11, ptr noundef %31, ptr noundef null, i1 noundef zeroext false, i1 noundef zeroext true)
  br label %32

32:                                               ; preds = %27, %22
  ret void
}