; Function Attrs: mustprogress nounwind uwtable
define internal fastcc void @_ZN12_GLOBAL__N_123MicrosoftCXXNameMangler10mangleTypeEPKN5clang17FunctionProtoTypeENS1_10QualifiersENS1_11SourceRangeE(ptr noundef nonnull align 8 dereferenceable(593) %0, ptr noundef nonnull %1) unnamed_addr #0 align 2 {
  %3 = tail call i64 @_ZNK5clang17FunctionProtoType14getMethodQualsEv(ptr noundef nonnull align 16 dereferenceable(48) %1)
  %.not9 = icmp eq i64 %3, 0
  br i1 %.not9, label %4, label %.critedge

4:                                                ; preds = %2
  %5 = getelementptr inbounds nuw i8, ptr %1, i64 16
  %6 = load i64, ptr %5, align 16
  %7 = and i64 %6, 12884901888
  %.not = icmp eq i64 %7, 0
  br i1 %.not, label %23, label %.critedge

.critedge:                                        ; preds = %2, %4
  %8 = getelementptr inbounds nuw i8, ptr %0, i64 8
  %9 = load ptr, ptr %8, align 8
  %10 = getelementptr inbounds nuw i8, ptr %9, i64 24
  %11 = load ptr, ptr %10, align 8
  %12 = getelementptr inbounds nuw i8, ptr %9, i64 32
  %13 = load ptr, ptr %12, align 8
  %14 = ptrtoint ptr %11 to i64
  %15 = ptrtoint ptr %13 to i64
  %16 = sub i64 %14, %15
  %17 = icmp ult i64 %16, 6
  br i1 %17, label %18, label %20

18:                                               ; preds = %.critedge
  %19 = tail call noundef nonnull align 8 dereferenceable(48) ptr @_ZN4llvm11raw_ostream5writeEPKcm(ptr noundef nonnull align 8 dereferenceable(48) %9, ptr noundef nonnull @.str.140, i64 noundef 6) #21
  br label %_ZN4llvm11raw_ostreamlsEPKc.exit

20:                                               ; preds = %.critedge
  tail call void @llvm.memcpy.p0.p0.i64(ptr noundef nonnull align 1 dereferenceable(6) %13, ptr noundef nonnull align 1 dereferenceable(6) @.str.140, i64 6, i1 false)
  %21 = load ptr, ptr %12, align 8
  %22 = getelementptr inbounds i8, ptr %21, i64 6
  store ptr %22, ptr %12, align 8
  br label %_ZN4llvm11raw_ostreamlsEPKc.exit

23:                                               ; preds = %4
  %24 = getelementptr inbounds nuw i8, ptr %0, i64 8
  %25 = load ptr, ptr %24, align 8
  %26 = getelementptr inbounds nuw i8, ptr %25, i64 24
  %27 = load ptr, ptr %26, align 8
  %28 = getelementptr inbounds nuw i8, ptr %25, i64 32
  %29 = load ptr, ptr %28, align 8
  %30 = ptrtoint ptr %27 to i64
  %31 = ptrtoint ptr %29 to i64
  %32 = sub i64 %30, %31
  %33 = icmp ult i64 %32, 4
  br i1 %33, label %34, label %36

34:                                               ; preds = %23
  %35 = tail call noundef nonnull align 8 dereferenceable(48) ptr @_ZN4llvm11raw_ostream5writeEPKcm(ptr noundef nonnull align 8 dereferenceable(48) %25, ptr noundef nonnull @.str.139, i64 noundef 4) #21
  br label %_ZN4llvm11raw_ostreamlsEPKc.exit

36:                                               ; preds = %23
  store i32 910238756, ptr %29, align 1
  %37 = load ptr, ptr %28, align 8
  %38 = getelementptr inbounds i8, ptr %37, i64 4
  store ptr %38, ptr %28, align 8
  br label %_ZN4llvm11raw_ostreamlsEPKc.exit

_ZN4llvm11raw_ostreamlsEPKc.exit:                 ; preds = %36, %34, %20, %18
  %.sink = phi i1 [ true, %18 ], [ true, %20 ], [ false, %34 ], [ false, %36 ]
  tail call fastcc void @_ZN12_GLOBAL__N_123MicrosoftCXXNameMangler18mangleFunctionTypeEPKN5clang12FunctionTypeEPKNS1_12FunctionDeclEbb(ptr noundef nonnull align 8 dereferenceable(593) %0, ptr noundef nonnull %1, ptr noundef null, i1 noundef zeroext %.sink, i1 noundef zeroext true)
  ret void
}